(imatplotlib.font_manager
FontManager
p1
(dp2
S'afm_lookup_cache'
p3
(dp4
sS'ttflist'
p5
(lp6
ccopy_reg
_reconstructor
p7
(cmatplotlib.font_manager
FontEntry
p8
c__builtin__
object
p9
NtRp10
(dp11
S'style'
p12
S'italic'
p13
sS'name'
p14
S'STIXNonUnicode'
p15
sS'weight'
p16
I700
sS'stretch'
p17
S'normal'
p18
sS'variant'
p19
g18
sS'fname'
p20
S'/Users/ludo/Development/task-chrono/fonts/ttf/STIXNonUniBolIta.ttf'
p21
sS'size'
p22
S'scalable'
p23
sbag7
(g8
g9
NtRp24
(dp25
g12
g18
sg14
S'STIXSizeTwoSym'
p26
sg16
I400
sg17
g18
sg19
g18
sg20
S'/Users/ludo/Development/task-chrono/fonts/ttf/STIXSizTwoSymReg.ttf'
p27
sg22
g23
sbag7
(g8
g9
NtRp28
(dp29
g12
g18
sg14
S'cmb10'
p30
sg16
I400
sg17
g18
sg19
g18
sg20
S'/Users/ludo/Development/task-chrono/fonts/ttf/cmb10.ttf'
p31
sg22
g23
sbag7
(g8
g9
NtRp32
(dp33
g12
g18
sg14
S'STIXSizeThreeSym'
p34
sg16
I700
sg17
g18
sg19
g18
sg20
S'/Users/ludo/Development/task-chrono/fonts/ttf/STIXSizThreeSymBol.ttf'
p35
sg22
g23
sbag7
(g8
g9
NtRp36
(dp37
g12
g18
sg14
S'STIXSizeOneSym'
p38
sg16
I700
sg17
g18
sg19
g18
sg20
S'/Users/ludo/Development/task-chrono/fonts/ttf/STIXSizOneSymBol.ttf'
p39
sg22
g23
sbag7
(g8
g9
NtRp40
(dp41
g12
g18
sg14
S'STIXSizeFourSym'
p42
sg16
I700
sg17
g18
sg19
g18
sg20
S'/Users/ludo/Development/task-chrono/fonts/ttf/STIXSizFourSymBol.ttf'
p43
sg22
g23
sbag7
(g8
g9
NtRp44
(dp45
g12
g13
sg14
S'STIXGeneral'
p46
sg16
I400
sg17
g18
sg19
g18
sg20
S'/Users/ludo/Development/task-chrono/fonts/ttf/STIXGeneralItalic.ttf'
p47
sg22
g23
sbag7
(g8
g9
NtRp48
(dp49
g12
g18
sg14
S'STIXGeneral'
p50
sg16
I700
sg17
g18
sg19
g18
sg20
S'/Users/ludo/Development/task-chrono/fonts/ttf/STIXGeneralBol.ttf'
p51
sg22
g23
sbag7
(g8
g9
NtRp52
(dp53
g12
g18
sg14
S'STIXSizeFourSym'
p54
sg16
I400
sg17
g18
sg19
g18
sg20
S'/Users/ludo/Development/task-chrono/fonts/ttf/STIXSizFourSymReg.ttf'
p55
sg22
g23
sbag7
(g8
g9
NtRp56
(dp57
g12
S'oblique'
p58
sg14
S'Bitstream Vera Sans Mono'
p59
sg16
I700
sg17
g18
sg19
g18
sg20
S'/Users/ludo/Development/task-chrono/fonts/ttf/VeraMoBI.ttf'
p60
sg22
g23
sbag7
(g8
g9
NtRp61
(dp62
g12
g18
sg14
S'cmmi10'
p63
sg16
I400
sg17
g18
sg19
g18
sg20
S'/Users/ludo/Development/task-chrono/fonts/ttf/cmmi10.ttf'
p64
sg22
g23
sbag7
(g8
g9
NtRp65
(dp66
g12
g18
sg14
S'cmss10'
p67
sg16
I400
sg17
g18
sg19
g18
sg20
S'/Users/ludo/Development/task-chrono/fonts/ttf/cmss10.ttf'
p68
sg22
g23
sbag7
(g8
g9
NtRp69
(dp70
g12
g18
sg14
S'Bitstream Vera Sans'
p71
sg16
I400
sg17
g18
sg19
g18
sg20
S'/Users/ludo/Development/task-chrono/fonts/ttf/Vera.ttf'
p72
sg22
g23
sbag7
(g8
g9
NtRp73
(dp74
g12
g18
sg14
S'STIXSizeFiveSym'
p75
sg16
I400
sg17
g18
sg19
g18
sg20
S'/Users/ludo/Development/task-chrono/fonts/ttf/STIXSizFiveSymReg.ttf'
p76
sg22
g23
sbag7
(g8
g9
NtRp77
(dp78
g12
g13
sg14
S'STIXNonUnicode'
p79
sg16
I400
sg17
g18
sg19
g18
sg20
S'/Users/ludo/Development/task-chrono/fonts/ttf/STIXNonUniIta.ttf'
p80
sg22
g23
sbag7
(g8
g9
NtRp81
(dp82
g12
g18
sg14
S'cmtt10'
p83
sg16
I400
sg17
g18
sg19
g18
sg20
S'/Users/ludo/Development/task-chrono/fonts/ttf/cmtt10.ttf'
p84
sg22
g23
sbag7
(g8
g9
NtRp85
(dp86
g12
g18
sg14
S'STIXNonUnicode'
p87
sg16
I400
sg17
g18
sg19
g18
sg20
S'/Users/ludo/Development/task-chrono/fonts/ttf/STIXNonUni.ttf'
p88
sg22
g23
sbag7
(g8
g9
NtRp89
(dp90
g12
g18
sg14
S'STIXNonUnicode'
p91
sg16
I700
sg17
g18
sg19
g18
sg20
S'/Users/ludo/Development/task-chrono/fonts/ttf/STIXNonUniBol.ttf'
p92
sg22
g23
sbag7
(g8
g9
NtRp93
(dp94
g12
g13
sg14
S'STIXGeneral'
p95
sg16
I700
sg17
g18
sg19
g18
sg20
S'/Users/ludo/Development/task-chrono/fonts/ttf/STIXGeneralBolIta.ttf'
p96
sg22
g23
sbag7
(g8
g9
NtRp97
(dp98
g12
g18
sg14
S'cmex10'
p99
sg16
I400
sg17
g18
sg19
g18
sg20
S'/Users/ludo/Development/task-chrono/fonts/ttf/cmex10.ttf'
p100
sg22
g23
sbag7
(g8
g9
NtRp101
(dp102
g12
g58
sg14
S'Bitstream Vera Sans'
p103
sg16
I700
sg17
g18
sg19
g18
sg20
S'/Users/ludo/Development/task-chrono/fonts/ttf/VeraBI.ttf'
p104
sg22
g23
sbag7
(g8
g9
NtRp105
(dp106
g12
g18
sg14
S'STIXSizeTwoSym'
p107
sg16
I700
sg17
g18
sg19
g18
sg20
S'/Users/ludo/Development/task-chrono/fonts/ttf/STIXSizTwoSymBol.ttf'
p108
sg22
g23
sbag7
(g8
g9
NtRp109
(dp110
g12
g18
sg14
S'Bitstream Vera Sans Mono'
p111
sg16
I400
sg17
g18
sg19
g18
sg20
S'/Users/ludo/Development/task-chrono/fonts/ttf/VeraMono.ttf'
p112
sg22
g23
sbag7
(g8
g9
NtRp113
(dp114
g12
g18
sg14
S'STIXGeneral'
p115
sg16
I400
sg17
g18
sg19
g18
sg20
S'/Users/ludo/Development/task-chrono/fonts/ttf/STIXGeneral.ttf'
p116
sg22
g23
sbag7
(g8
g9
NtRp117
(dp118
g12
g18
sg14
S'cmr10'
p119
sg16
I400
sg17
g18
sg19
g18
sg20
S'/Users/ludo/Development/task-chrono/fonts/ttf/cmr10.ttf'
p120
sg22
g23
sbag7
(g8
g9
NtRp121
(dp122
g12
g58
sg14
S'Bitstream Vera Sans Mono'
p123
sg16
I400
sg17
g18
sg19
g18
sg20
S'/Users/ludo/Development/task-chrono/fonts/ttf/VeraMoIt.ttf'
p124
sg22
g23
sbag7
(g8
g9
NtRp125
(dp126
g12
g18
sg14
S'Bitstream Vera Sans Mono'
p127
sg16
I700
sg17
g18
sg19
g18
sg20
S'/Users/ludo/Development/task-chrono/fonts/ttf/VeraMoBd.ttf'
p128
sg22
g23
sbag7
(g8
g9
NtRp129
(dp130
g12
g18
sg14
S'STIXSizeOneSym'
p131
sg16
I400
sg17
g18
sg19
g18
sg20
S'/Users/ludo/Development/task-chrono/fonts/ttf/STIXSizOneSymReg.ttf'
p132
sg22
g23
sbag7
(g8
g9
NtRp133
(dp134
g12
g18
sg14
S'Bitstream Vera Serif'
p135
sg16
I700
sg17
g18
sg19
g18
sg20
S'/Users/ludo/Development/task-chrono/fonts/ttf/VeraSeBd.ttf'
p136
sg22
g23
sbag7
(g8
g9
NtRp137
(dp138
g12
g18
sg14
S'STIXSizeThreeSym'
p139
sg16
I400
sg17
g18
sg19
g18
sg20
S'/Users/ludo/Development/task-chrono/fonts/ttf/STIXSizThreeSymReg.ttf'
p140
sg22
g23
sbag7
(g8
g9
NtRp141
(dp142
g12
g18
sg14
S'Bitstream Vera Serif'
p143
sg16
I400
sg17
g18
sg19
g18
sg20
S'/Users/ludo/Development/task-chrono/fonts/ttf/VeraSe.ttf'
p144
sg22
g23
sbag7
(g8
g9
NtRp145
(dp146
g12
g58
sg14
S'Bitstream Vera Sans'
p147
sg16
I400
sg17
g18
sg19
g18
sg20
S'/Users/ludo/Development/task-chrono/fonts/ttf/VeraIt.ttf'
p148
sg22
g23
sbag7
(g8
g9
NtRp149
(dp150
g12
g18
sg14
S'cmsy10'
p151
sg16
I400
sg17
g18
sg19
g18
sg20
S'/Users/ludo/Development/task-chrono/fonts/ttf/cmsy10.ttf'
p152
sg22
g23
sbag7
(g8
g9
NtRp153
(dp154
g12
g18
sg14
S'Bitstream Vera Sans'
p155
sg16
I700
sg17
g18
sg19
g18
sg20
S'/Users/ludo/Development/task-chrono/fonts/ttf/VeraBd.ttf'
p156
sg22
g23
sbag7
(g8
g9
NtRp157
(dp158
g12
g13
sg14
S'Trebuchet MS'
p159
sg16
I400
sg17
g18
sg19
g18
sg20
S'/Library/Fonts/Trebuchet MS Italic.ttf'
p160
sg22
g23
sbag7
(g8
g9
NtRp161
(dp162
g12
g18
sg14
S'Hoefler Text'
p163
sg16
I400
sg17
g18
sg19
g18
sg20
S'/Library/Fonts/Hoefler Text Ornaments.ttf'
p164
sg22
g23
sbag7
(g8
g9
NtRp165
(dp166
g12
g18
sg14
S'Mshtakan'
p167
sg16
I400
sg17
g18
sg19
g18
sg20
S'/Library/Fonts/MshtakanRegular.ttf'
p168
sg22
g23
sbag7
(g8
g9
NtRp169
(dp170
g12
g18
sg14
S'Hiragino Mincho ProN'
p171
sg16
I700
sg17
g18
sg19
g18
sg20
S'/System/Library/Fonts/\xe3\x83\x92\xe3\x83\xa9\xe3\x82\xad\xe3\x82\x99\xe3\x83\x8e\xe6\x98\x8e\xe6\x9c\x9d ProN W6.otf'
p172
sg22
g23
sbag7
(g8
g9
NtRp173
(dp174
g12
g18
sg14
S'Osaka'
p175
sg16
I400
sg17
g18
sg19
g18
sg20
S'/Library/Fonts/Osaka.ttf'
p176
sg22
g23
sbag7
(g8
g9
NtRp177
(dp178
g12
g18
sg14
S'Verdana'
p179
sg16
I700
sg17
g18
sg19
g18
sg20
S'/Library/Fonts/Verdana Bold.ttf'
p180
sg22
g23
sbag7
(g8
g9
NtRp181
(dp182
g12
g18
sg14
S'Apple SD Gothic Neo'
p183
sg16
I200
sg17
g18
sg19
g18
sg20
S'/Library/Fonts/AppleSDGothicNeo-UltraLight.otf'
p184
sg22
g23
sbag7
(g8
g9
NtRp185
(dp186
g12
g18
sg14
S'LiHei Pro'
p187
sg16
I400
sg17
g18
sg19
g18
sg20
S'/Library/Fonts/\xe5\x84\xb7\xe9\xbb\x91 Pro.ttf'
p188
sg22
g23
sbag7
(g8
g9
NtRp189
(dp190
g12
g18
sg14
S'Arial Unicode MS'
p191
sg16
I400
sg17
g18
sg19
g18
sg20
S'/Library/Fonts/Arial Unicode.ttf'
p192
sg22
g23
sbag7
(g8
g9
NtRp193
(dp194
g12
g18
sg14
S'STIXSizeThreeSym'
p195
sg16
I400
sg17
g18
sg19
g18
sg20
S'/Library/Fonts/STIXSizThreeSymReg.otf'
p196
sg22
g23
sbag7
(g8
g9
NtRp197
(dp198
g12
g18
sg14
S'DIN Condensed'
p199
sg16
I700
sg17
S'condensed'
p200
sg19
g18
sg20
S'/Library/Fonts/DIN Condensed Bold.ttf'
p201
sg22
g23
sbag7
(g8
g9
NtRp202
(dp203
g12
g18
sg14
S'Times New Roman'
p204
sg16
I500
sg17
g18
sg19
g18
sg20
S'/Library/Fonts/Times New Roman.ttf'
p205
sg22
g23
sbag7
(g8
g9
NtRp206
(dp207
g12
g18
sg14
S'Apple SD Gothic Neo'
p208
sg16
I800
sg17
g18
sg19
g18
sg20
S'/Library/Fonts/AppleSDGothicNeo-Heavy.otf'
p209
sg22
g23
sbag7
(g8
g9
NtRp210
(dp211
g12
g18
sg14
S'Arial'
p212
sg16
I400
sg17
g18
sg19
g18
sg20
S'/Library/Fonts/Arial.ttf'
p213
sg22
g23
sbag7
(g8
g9
NtRp214
(dp215
g12
g18
sg14
S'AppleGothic'
p216
sg16
I400
sg17
g18
sg19
g18
sg20
S'/Library/Fonts/AppleGothic.ttf'
p217
sg22
g23
sbag7
(g8
g9
NtRp218
(dp219
g12
g18
sg14
S'YuGothic'
p220
sg16
I400
sg17
g18
sg19
g18
sg20
S'/Library/Fonts/Yu Gothic Medium.otf'
p221
sg22
g23
sbag7
(g8
g9
NtRp222
(dp223
g12
g18
sg14
S'Gujarati MT'
p224
sg16
I700
sg17
g18
sg19
g18
sg20
S'/Library/Fonts/GujaratiMTBold.ttf'
p225
sg22
g23
sbag7
(g8
g9
NtRp226
(dp227
g12
g18
sg14
S'Arial Narrow'
p228
sg16
I400
sg17
g200
sg19
g18
sg20
S'/Library/Fonts/Arial Narrow.ttf'
p229
sg22
g23
sbag7
(g8
g9
NtRp230
(dp231
g12
g18
sg14
S'Apple SD Gothic Neo'
p232
sg16
I700
sg17
g18
sg19
g18
sg20
S'/System/Library/Fonts/AppleSDGothicNeo-Bold.otf'
p233
sg22
g23
sbag7
(g8
g9
NtRp234
(dp235
g12
g58
sg14
S'Mshtakan'
p236
sg16
I400
sg17
g18
sg19
g18
sg20
S'/Library/Fonts/MshtakanOblique.ttf'
p237
sg22
g23
sbag7
(g8
g9
NtRp238
(dp239
g12
g18
sg14
S'Hiragino Kaku Gothic Pro'
p240
sg16
I400
sg17
g18
sg19
g18
sg20
S'/Library/Fonts/\xe3\x83\x92\xe3\x83\xa9\xe3\x82\xad\xe3\x82\x99\xe3\x83\x8e\xe8\xa7\x92\xe3\x82\xb3\xe3\x82\x99 Pro W3.otf'
p241
sg22
g23
sbag7
(g8
g9
NtRp242
(dp243
g12
g18
sg14
S'AppleMyungjo'
p244
sg16
I400
sg17
g18
sg19
g18
sg20
S'/Library/Fonts/AppleMyungjo.ttf'
p245
sg22
g23
sbag7
(g8
g9
NtRp246
(dp247
g12
g18
sg14
S'Zapf Dingbats'
p248
sg16
I400
sg17
g18
sg19
g18
sg20
S'/System/Library/Fonts/ZapfDingbats.ttf'
p249
sg22
g23
sbag7
(g8
g9
NtRp250
(dp251
g12
g18
sg14
S'STIXIntegralsD'
p252
sg16
I700
sg17
g18
sg19
g18
sg20
S'/Library/Fonts/STIXIntDBol.otf'
p253
sg22
g23
sbag7
(g8
g9
NtRp254
(dp255
g12
g18
sg14
S'Apple LiSung'
p256
sg16
I200
sg17
g18
sg19
g18
sg20
S'/Library/Fonts/Apple LiSung Light.ttf'
p257
sg22
g23
sbag7
(g8
g9
NtRp258
(dp259
g12
g18
sg14
S'DIN Alternate'
p260
sg16
I700
sg17
g18
sg19
g18
sg20
S'/Library/Fonts/DIN Alternate Bold.ttf'
p261
sg22
g23
sbag7
(g8
g9
NtRp262
(dp263
g12
g18
sg14
S'Myanmar Sangam MN'
p264
sg16
I400
sg17
g18
sg19
g18
sg20
S'/Library/Fonts/Myanmar Sangam MN.ttf'
p265
sg22
g23
sbag7
(g8
g9
NtRp266
(dp267
g12
g18
sg14
S'STIXSizeThreeSym'
p268
sg16
I700
sg17
g18
sg19
g18
sg20
S'/Library/Fonts/STIXSizThreeSymBol.otf'
p269
sg22
g23
sbag7
(g8
g9
NtRp270
(dp271
g12
g18
sg14
S'Courier New'
p272
sg16
I400
sg17
g18
sg19
g18
sg20
S'/Library/Fonts/Courier New.ttf'
p273
sg22
g23
sbag7
(g8
g9
NtRp274
(dp275
g12
g13
sg14
S'Arial Narrow'
p276
sg16
I700
sg17
g200
sg19
g18
sg20
S'/Library/Fonts/Arial Narrow Bold Italic.ttf'
p277
sg22
g23
sbag7
(g8
g9
NtRp278
(dp279
g12
g18
sg14
S'Zapfino'
p280
sg16
I400
sg17
g18
sg19
g18
sg20
S'/Library/Fonts/Zapfino.ttf'
p281
sg22
g23
sbag7
(g8
g9
NtRp282
(dp283
g12
g18
sg14
S'Arial Narrow'
p284
sg16
I700
sg17
g200
sg19
g18
sg20
S'/Library/Fonts/Arial Narrow Bold.ttf'
p285
sg22
g23
sbag7
(g8
g9
NtRp286
(dp287
g12
g13
sg14
S'Times New Roman'
p288
sg16
I500
sg17
g18
sg19
g18
sg20
S'/Library/Fonts/Times New Roman Italic.ttf'
p289
sg22
g23
sbag7
(g8
g9
NtRp290
(dp291
g12
g18
sg14
S'Krungthep'
p292
sg16
I400
sg17
g18
sg19
g18
sg20
S'/Library/Fonts/Krungthep.ttf'
p293
sg22
g23
sbag7
(g8
g9
NtRp294
(dp295
g12
g18
sg14
S'Hiragino Mincho Pro'
p296
sg16
I400
sg17
g18
sg19
g18
sg20
S'/Library/Fonts/\xe3\x83\x92\xe3\x83\xa9\xe3\x82\xad\xe3\x82\x99\xe3\x83\x8e\xe6\x98\x8e\xe6\x9c\x9d Pro W3.otf'
p297
sg22
g23
sbag7
(g8
g9
NtRp298
(dp299
g12
g18
sg14
S'Apple SD Gothic Neo'
p300
sg16
I700
sg17
g18
sg19
g18
sg20
S'/Library/Fonts/AppleSDGothicNeo-ExtraBold.otf'
p301
sg22
g23
sbag7
(g8
g9
NtRp302
(dp303
g12
g18
sg14
S'Georgia'
p304
sg16
I400
sg17
g18
sg19
g18
sg20
S'/Library/Fonts/Georgia.ttf'
p305
sg22
g23
sbag7
(g8
g9
NtRp306
(dp307
g12
g18
sg14
S'STIXIntegralsSm'
p308
sg16
I700
sg17
g18
sg19
g18
sg20
S'/Library/Fonts/STIXIntSmBol.otf'
p309
sg22
g23
sbag7
(g8
g9
NtRp310
(dp311
g12
g18
sg14
S'Trebuchet MS'
p312
sg16
I700
sg17
g18
sg19
g18
sg20
S'/Library/Fonts/Trebuchet MS Bold.ttf'
p313
sg22
g23
sbag7
(g8
g9
NtRp314
(dp315
g12
g18
sg14
S'Apple Symbols'
p316
sg16
I400
sg17
g18
sg19
g18
sg20
S'/System/Library/Fonts/Apple Symbols.ttf'
p317
sg22
g23
sbag7
(g8
g9
NtRp318
(dp319
g12
g13
sg14
S'Times New Roman'
p320
sg16
I700
sg17
g18
sg19
g18
sg20
S'/Library/Fonts/Times New Roman Bold Italic.ttf'
p321
sg22
g23
sbag7
(g8
g9
NtRp322
(dp323
g12
g18
sg14
S'Webdings'
p324
sg16
I400
sg17
g18
sg19
g18
sg20
S'/Library/Fonts/Webdings.ttf'
p325
sg22
g23
sbag7
(g8
g9
NtRp326
(dp327
g12
g13
sg14
S'Arial Narrow'
p328
sg16
I400
sg17
g200
sg19
g18
sg20
S'/Library/Fonts/Arial Narrow Italic.ttf'
p329
sg22
g23
sbag7
(g8
g9
NtRp330
(dp331
g12
g18
sg14
S'Hiragino Kaku Gothic ProN'
p332
sg16
I400
sg17
g18
sg19
g18
sg20
S'/System/Library/Fonts/\xe3\x83\x92\xe3\x83\xa9\xe3\x82\xad\xe3\x82\x99\xe3\x83\x8e\xe8\xa7\x92\xe3\x82\xb3\xe3\x82\x99 ProN W3.otf'
p333
sg22
g23
sbag7
(g8
g9
NtRp334
(dp335
g12
g18
sg14
S'PilGi'
p336
sg16
I400
sg17
g18
sg19
g18
sg20
S'/Library/Fonts/Pilgiche.ttf'
p337
sg22
g23
sbag7
(g8
g9
NtRp338
(dp339
g12
g18
sg14
S'Apple Braille'
p340
sg16
I400
sg17
g18
sg19
g18
sg20
S'/System/Library/Fonts/Apple Braille Outline 8 Dot.ttf'
p341
sg22
g23
sbag7
(g8
g9
NtRp342
(dp343
g12
g18
sg14
S'Nadeem'
p344
sg16
I400
sg17
g18
sg19
g18
sg20
S'/Library/Fonts/Nadeem.ttf'
p345
sg22
g23
sbag7
(g8
g9
NtRp346
(dp347
g12
g18
sg14
S'Plantagenet Cherokee'
p348
sg16
I400
sg17
g18
sg19
g18
sg20
S'/Library/Fonts/PlantagenetCherokee.ttf'
p349
sg22
g23
sbag7
(g8
g9
NtRp350
(dp351
g12
g18
sg14
S'Times New Roman'
p352
sg16
I700
sg17
g18
sg19
g18
sg20
S'/Library/Fonts/Times New Roman Bold.ttf'
p353
sg22
g23
sbag7
(g8
g9
NtRp354
(dp355
g12
g18
sg14
S'BiauKai'
p356
sg16
I400
sg17
g18
sg19
g18
sg20
S'/Library/Fonts/BiauKai.ttf'
p357
sg22
g23
sbag7
(g8
g9
NtRp358
(dp359
g12
g13
sg14
S'Arial'
p360
sg16
I700
sg17
g18
sg19
g18
sg20
S'/Library/Fonts/Arial Bold Italic.ttf'
p361
sg22
g23
sbag7
(g8
g9
NtRp362
(dp363
g12
g18
sg14
S'STIXVariants'
p364
sg16
I400
sg17
g18
sg19
g18
sg20
S'/Library/Fonts/STIXVar.otf'
p365
sg22
g23
sbag7
(g8
g9
NtRp366
(dp367
g12
g18
sg14
S'STIXVariants'
p368
sg16
I700
sg17
g18
sg19
g18
sg20
S'/Library/Fonts/STIXVarBol.otf'
p369
sg22
g23
sbag7
(g8
g9
NtRp370
(dp371
g12
g18
sg14
S'Hiragino Sans GB'
p372
sg16
I400
sg17
g18
sg19
g18
sg20
S'/Library/Fonts/Hiragino Sans GB W3.otf'
p373
sg22
g23
sbag7
(g8
g9
NtRp374
(dp375
g12
g18
sg14
S'Hiragino Kaku Gothic ProN'
p376
sg16
I700
sg17
g18
sg19
g18
sg20
S'/System/Library/Fonts/\xe3\x83\x92\xe3\x83\xa9\xe3\x82\xad\xe3\x82\x99\xe3\x83\x8e\xe8\xa7\x92\xe3\x82\xb3\xe3\x82\x99 ProN W6.otf'
p377
sg22
g23
sbag7
(g8
g9
NtRp378
(dp379
g12
g18
sg14
S'Hiragino Kaku Gothic StdN'
p380
sg16
I700
sg17
g18
sg19
g18
sg20
S'/Library/Fonts/\xe3\x83\x92\xe3\x83\xa9\xe3\x82\xad\xe3\x82\x99\xe3\x83\x8e\xe8\xa7\x92\xe3\x82\xb3\xe3\x82\x99 StdN W8.otf'
p381
sg22
g23
sbag7
(g8
g9
NtRp382
(dp383
g12
g18
sg14
S'Mshtakan'
p384
sg16
I700
sg17
g18
sg19
g18
sg20
S'/Library/Fonts/MshtakanBold.ttf'
p385
sg22
g23
sbag7
(g8
g9
NtRp386
(dp387
g12
g18
sg14
S'STIXIntegralsUp'
p388
sg16
I700
sg17
g18
sg19
g18
sg20
S'/Library/Fonts/STIXIntUpBol.otf'
p389
sg22
g23
sbag7
(g8
g9
NtRp390
(dp391
g12
g18
sg14
S'Wawati TC'
p392
sg16
I400
sg17
g18
sg19
g18
sg20
S'/Library/Fonts/WawaTC-Regular.otf'
p393
sg22
g23
sbag7
(g8
g9
NtRp394
(dp395
g12
g18
sg14
S'Skia'
p396
sg16
I400
sg17
g18
sg19
g18
sg20
S'/Library/Fonts/Skia.ttf'
p397
sg22
g23
sbag7
(g8
g9
NtRp398
(dp399
g12
g18
sg14
S'STIXSizeFiveSym'
p400
sg16
I400
sg17
g18
sg19
g18
sg20
S'/Library/Fonts/STIXSizFiveSymReg.otf'
p401
sg22
g23
sbag7
(g8
g9
NtRp402
(dp403
g12
g18
sg14
S'Verdana'
p404
sg16
I400
sg17
g18
sg19
g18
sg20
S'/Library/Fonts/Verdana.ttf'
p405
sg22
g23
sbag7
(g8
g9
NtRp406
(dp407
g12
g18
sg14
S'Gurmukhi MT'
p408
sg16
I400
sg17
g18
sg19
g18
sg20
S'/Library/Fonts/Gurmukhi.ttf'
p409
sg22
g23
sbag7
(g8
g9
NtRp410
(dp411
g12
g18
sg14
S'YuGothic'
p412
sg16
I700
sg17
g18
sg19
g18
sg20
S'/Library/Fonts/Yu Gothic Bold.otf'
p413
sg22
g23
sbag7
(g8
g9
NtRp414
(dp415
g12
g18
sg14
S'YuMincho'
p416
sg16
I700
sg17
g18
sg19
g18
sg20
S'/Library/Fonts/Yu Mincho Demibold.otf'
p417
sg22
g23
sbag7
(g8
g9
NtRp418
(dp419
g12
g18
sg14
S'STFangsong'
p420
sg16
I400
sg17
g18
sg19
g18
sg20
S'/Library/Fonts/\xe5\x8d\x8e\xe6\x96\x87\xe4\xbb\xbf\xe5\xae\x8b.ttf'
p421
sg22
g23
sbag7
(g8
g9
NtRp422
(dp423
g12
g13
sg14
S'Arial'
p424
sg16
I400
sg17
g18
sg19
g18
sg20
S'/Library/Fonts/Arial Italic.ttf'
p425
sg22
g23
sbag7
(g8
g9
NtRp426
(dp427
g12
g18
sg14
S'Hiragino Kaku Gothic Std'
p428
sg16
I700
sg17
g18
sg19
g18
sg20
S'/Library/Fonts/\xe3\x83\x92\xe3\x83\xa9\xe3\x82\xad\xe3\x82\x99\xe3\x83\x8e\xe8\xa7\x92\xe3\x82\xb3\xe3\x82\x99 Std W8.otf'
p429
sg22
g23
sbag7
(g8
g9
NtRp430
(dp431
g12
g18
sg14
S'LiSong Pro'
p432
sg16
I400
sg17
g18
sg19
g18
sg20
S'/Library/Fonts/\xe5\x84\xb7\xe5\xae\x8b Pro.ttf'
p433
sg22
g23
sbag7
(g8
g9
NtRp434
(dp435
g12
g18
sg14
S'Hiragino Maru Gothic Pro'
p436
sg16
I400
sg17
g18
sg19
g18
sg20
S'/Library/Fonts/\xe3\x83\x92\xe3\x83\xa9\xe3\x82\xad\xe3\x82\x99\xe3\x83\x8e\xe4\xb8\xb8\xe3\x82\xb3\xe3\x82\x99 Pro W4.otf'
p437
sg22
g23
sbag7
(g8
g9
NtRp438
(dp439
g12
g13
sg14
S'STIXNonUnicode'
p440
sg16
I700
sg17
g18
sg19
g18
sg20
S'/Library/Fonts/STIXNonUniBolIta.otf'
p441
sg22
g23
sbag7
(g8
g9
NtRp442
(dp443
g12
g18
sg14
S'Apple Braille'
p444
sg16
I400
sg17
g18
sg19
g18
sg20
S'/System/Library/Fonts/Apple Braille Pinpoint 8 Dot.ttf'
p445
sg22
g23
sbag7
(g8
g9
NtRp446
(dp447
g12
g13
sg14
S'Georgia'
p448
sg16
I400
sg17
g18
sg19
g18
sg20
S'/Library/Fonts/Georgia Italic.ttf'
p449
sg22
g23
sbag7
(g8
g9
NtRp450
(dp451
g12
g18
sg14
S'Apple Braille'
p452
sg16
I400
sg17
g18
sg19
g18
sg20
S'/System/Library/Fonts/Apple Braille Outline 6 Dot.ttf'
p453
sg22
g23
sbag7
(g8
g9
NtRp454
(dp455
g12
g18
sg14
S'Chalkduster'
p456
sg16
I400
sg17
g18
sg19
g18
sg20
S'/Library/Fonts/Chalkduster.ttf'
p457
sg22
g23
sbag7
(g8
g9
NtRp458
(dp459
g12
g13
sg14
S'Courier New'
p460
sg16
I700
sg17
g18
sg19
g18
sg20
S'/Library/Fonts/Courier New Bold Italic.ttf'
p461
sg22
g23
sbag7
(g8
g9
NtRp462
(dp463
g12
g18
sg14
S'Wawati SC'
p464
sg16
I400
sg17
g18
sg19
g18
sg20
S'/Library/Fonts/WawaSC-Regular.otf'
p465
sg22
g23
sbag7
(g8
g9
NtRp466
(dp467
g12
g18
sg14
S'Arial Rounded MT Bold'
p468
sg16
I700
sg17
g18
sg19
g18
sg20
S'/Library/Fonts/Arial Rounded Bold.ttf'
p469
sg22
g23
sbag7
(g8
g9
NtRp470
(dp471
g12
g18
sg14
S'Devanagari MT'
p472
sg16
I700
sg17
g18
sg19
g18
sg20
S'/Library/Fonts/DevanagariMTBold.ttf'
p473
sg22
g23
sbag7
(g8
g9
NtRp474
(dp475
g12
g18
sg14
S'Devanagari MT'
p476
sg16
I400
sg17
g18
sg19
g18
sg20
S'/Library/Fonts/DevanagariMT.ttf'
p477
sg22
g23
sbag7
(g8
g9
NtRp478
(dp479
g12
g18
sg14
S'PCMyungjo'
p480
sg16
I400
sg17
g18
sg19
g18
sg20
S'/Library/Fonts/PCmyoungjo.ttf'
p481
sg22
g23
sbag7
(g8
g9
NtRp482
(dp483
g12
g18
sg14
S'LastResort'
p484
sg16
I400
sg17
g18
sg19
g18
sg20
S'/System/Library/Fonts/LastResort.ttf'
p485
sg22
g23
sbag7
(g8
g9
NtRp486
(dp487
g12
g18
sg14
S'Apple SD Gothic Neo'
p488
sg16
I200
sg17
g18
sg19
g18
sg20
S'/Library/Fonts/AppleSDGothicNeo-Light.otf'
p489
sg22
g23
sbag7
(g8
g9
NtRp490
(dp491
g12
g18
sg14
S'Al Bayan'
p492
sg16
I400
sg17
g18
sg19
g18
sg20
S'/Library/Fonts/AlBayan.ttf'
p493
sg22
g23
sbag7
(g8
g9
NtRp494
(dp495
g12
g13
sg14
S'Verdana'
p496
sg16
I700
sg17
g18
sg19
g18
sg20
S'/Library/Fonts/Verdana Bold Italic.ttf'
p497
sg22
g23
sbag7
(g8
g9
NtRp498
(dp499
g12
g18
sg14
S'Hiragino Sans GB'
p500
sg16
I700
sg17
g18
sg19
g18
sg20
S'/Library/Fonts/Hiragino Sans GB W6.otf'
p501
sg22
g23
sbag7
(g8
g9
NtRp502
(dp503
g12
g18
sg14
S'Kailasa'
p504
sg16
I400
sg17
g18
sg19
g18
sg20
S'/Library/Fonts/Kailasa.ttf'
p505
sg22
g23
sbag7
(g8
g9
NtRp506
(dp507
g12
g18
sg14
S'STIXIntegralsSm'
p508
sg16
I400
sg17
g18
sg19
g18
sg20
S'/Library/Fonts/STIXIntSmReg.otf'
p509
sg22
g23
sbag7
(g8
g9
NtRp510
(dp511
g12
g18
sg14
S'Apple SD Gothic Neo'
p512
sg16
I400
sg17
g18
sg19
g18
sg20
S'/Library/Fonts/AppleSDGothicNeo-Thin.otf'
p513
sg22
g23
sbag7
(g8
g9
NtRp514
(dp515
g12
g18
sg14
S'Kokonor'
p516
sg16
I400
sg17
g18
sg19
g18
sg20
S'/Library/Fonts/Kokonor.ttf'
p517
sg22
g23
sbag7
(g8
g9
NtRp518
(dp519
g12
g18
sg14
S'Geeza Pro'
p520
sg16
I700
sg17
g18
sg19
g18
sg20
S'/System/Library/Fonts/Geeza Pro Bold.ttf'
p521
sg22
g23
sbag7
(g8
g9
NtRp522
(dp523
g12
g13
sg14
S'Verdana'
p524
sg16
I400
sg17
g18
sg19
g18
sg20
S'/Library/Fonts/Verdana Italic.ttf'
p525
sg22
g23
sbag7
(g8
g9
NtRp526
(dp527
g12
g18
sg14
S'STIXGeneral'
p528
sg16
I700
sg17
g18
sg19
g18
sg20
S'/Library/Fonts/STIXGeneralBol.otf'
p529
sg22
g23
sbag7
(g8
g9
NtRp530
(dp531
g12
g18
sg14
S'Apple Braille'
p532
sg16
I400
sg17
g18
sg19
g18
sg20
S'/System/Library/Fonts/Apple Braille.ttf'
p533
sg22
g23
sbag7
(g8
g9
NtRp534
(dp535
g12
g18
sg14
S'Hiragino Mincho Pro'
p536
sg16
I700
sg17
g18
sg19
g18
sg20
S'/Library/Fonts/\xe3\x83\x92\xe3\x83\xa9\xe3\x82\xad\xe3\x82\x99\xe3\x83\x8e\xe6\x98\x8e\xe6\x9c\x9d Pro W6.otf'
p537
sg22
g23
sbag7
(g8
g9
NtRp538
(dp539
g12
g18
sg14
S'InaiMathi'
p540
sg16
I400
sg17
g18
sg19
g18
sg20
S'/Library/Fonts/InaiMathi.ttf'
p541
sg22
g23
sbag7
(g8
g9
NtRp542
(dp543
g12
g18
sg14
S'Weibei TC'
p544
sg16
I700
sg17
g18
sg19
g18
sg20
S'/Library/Fonts/WeibeiTC-Bold.otf'
p545
sg22
g23
sbag7
(g8
g9
NtRp546
(dp547
g12
g18
sg14
S'STIXNonUnicode'
p548
sg16
I400
sg17
g18
sg19
g18
sg20
S'/Library/Fonts/STIXNonUni.otf'
p549
sg22
g23
sbag7
(g8
g9
NtRp550
(dp551
g12
g18
sg14
S'STIXIntegralsD'
p552
sg16
I400
sg17
g18
sg19
g18
sg20
S'/Library/Fonts/STIXIntDReg.otf'
p553
sg22
g23
sbag7
(g8
g9
NtRp554
(dp555
g12
g13
sg14
S'STIXNonUnicode'
p556
sg16
I400
sg17
g18
sg19
g18
sg20
S'/Library/Fonts/STIXNonUniIta.otf'
p557
sg22
g23
sbag7
(g8
g9
NtRp558
(dp559
g12
g18
sg14
S'Baghdad'
p560
sg16
I400
sg17
g18
sg19
g18
sg20
S'/Library/Fonts/Baghdad.ttf'
p561
sg22
g23
sbag7
(g8
g9
NtRp562
(dp563
g12
g18
sg14
S'STIXIntegralsUp'
p564
sg16
I400
sg17
g18
sg19
g18
sg20
S'/Library/Fonts/STIXIntUpReg.otf'
p565
sg22
g23
sbag7
(g8
g9
NtRp566
(dp567
g12
g18
sg14
S'Yuppy SC'
p568
sg16
I400
sg17
g18
sg19
g18
sg20
S'/Library/Fonts/YuppySC-Regular.otf'
p569
sg22
g23
sbag7
(g8
g9
NtRp570
(dp571
g12
g18
sg14
S'Comic Sans MS'
p572
sg16
I700
sg17
g18
sg19
g18
sg20
S'/Library/Fonts/Comic Sans MS Bold.ttf'
p573
sg22
g23
sbag7
(g8
g9
NtRp574
(dp575
g12
g18
sg14
S'Trebuchet MS'
p576
sg16
I400
sg17
g18
sg19
g18
sg20
S'/Library/Fonts/Trebuchet MS.ttf'
p577
sg22
g23
sbag7
(g8
g9
NtRp578
(dp579
g12
g18
sg14
S'Courier New'
p580
sg16
I700
sg17
g18
sg19
g18
sg20
S'/Library/Fonts/Courier New Bold.ttf'
p581
sg22
g23
sbag7
(g8
g9
NtRp582
(dp583
g12
g18
sg14
S'Big Caslon'
p584
sg16
I500
sg17
g18
sg19
g18
sg20
S'/Library/Fonts/BigCaslon.ttf'
p585
sg22
g23
sbag7
(g8
g9
NtRp586
(dp587
g12
g18
sg14
S'Ayuthaya'
p588
sg16
I400
sg17
g18
sg19
g18
sg20
S'/Library/Fonts/Ayuthaya.ttf'
p589
sg22
g23
sbag7
(g8
g9
NtRp590
(dp591
g12
g18
sg14
S'Apple SD Gothic Neo'
p592
sg16
I700
sg17
g18
sg19
g18
sg20
S'/Library/Fonts/AppleSDGothicNeo-SemiBold.otf'
p593
sg22
g23
sbag7
(g8
g9
NtRp594
(dp595
g12
g18
sg14
S'Herculanum'
p596
sg16
I400
sg17
g18
sg19
g18
sg20
S'/Library/Fonts/Herculanum.ttf'
p597
sg22
g23
sbag7
(g8
g9
NtRp598
(dp599
g12
g18
sg14
S'DecoType Naskh'
p600
sg16
I400
sg17
g18
sg19
g18
sg20
S'/Library/Fonts/DecoTypeNaskh.ttf'
p601
sg22
g23
sbag7
(g8
g9
NtRp602
(dp603
g12
g18
sg14
S'Apple Braille'
p604
sg16
I400
sg17
g18
sg19
g18
sg20
S'/System/Library/Fonts/Apple Braille Pinpoint 6 Dot.ttf'
p605
sg22
g23
sbag7
(g8
g9
NtRp606
(dp607
g12
g18
sg14
S'Hiragino Kaku Gothic Pro'
p608
sg16
I700
sg17
g18
sg19
g18
sg20
S'/Library/Fonts/\xe3\x83\x92\xe3\x83\xa9\xe3\x82\xad\xe3\x82\x99\xe3\x83\x8e\xe8\xa7\x92\xe3\x82\xb3\xe3\x82\x99 Pro W6.otf'
p609
sg22
g23
sbag7
(g8
g9
NtRp610
(dp611
g12
g18
sg14
S'Symbol'
p612
sg16
I400
sg17
g18
sg19
g18
sg20
S'/System/Library/Fonts/Symbol.ttf'
p613
sg22
g23
sbag7
(g8
g9
NtRp614
(dp615
g12
g13
sg14
S'Trebuchet MS'
p616
sg16
I700
sg17
g18
sg19
g18
sg20
S'/Library/Fonts/Trebuchet MS Bold Italic.ttf'
p617
sg22
g23
sbag7
(g8
g9
NtRp618
(dp619
g12
g18
sg14
S'Apple SD Gothic Neo'
p620
sg16
I400
sg17
g18
sg19
g18
sg20
S'/System/Library/Fonts/AppleSDGothicNeo-Regular.otf'
p621
sg22
g23
sbag7
(g8
g9
NtRp622
(dp623
g12
g18
sg14
S'Al Bayan'
p624
sg16
I700
sg17
g18
sg19
g18
sg20
S'/Library/Fonts/AlBayanBold.ttf'
p625
sg22
g23
sbag7
(g8
g9
NtRp626
(dp627
g12
g18
sg14
S'Wingdings 2'
p628
sg16
I400
sg17
g18
sg19
g18
sg20
S'/Library/Fonts/Wingdings 2.ttf'
p629
sg22
g23
sbag7
(g8
g9
NtRp630
(dp631
g12
g18
sg14
S'HeadLineA'
p632
sg16
I400
sg17
g18
sg19
g18
sg20
S'/Library/Fonts/HeadlineA.ttf'
p633
sg22
g23
sbag7
(g8
g9
NtRp634
(dp635
g12
g18
sg14
S'Tahoma'
p636
sg16
I400
sg17
g18
sg19
g18
sg20
S'/Library/Fonts/Tahoma.ttf'
p637
sg22
g23
sbag7
(g8
g9
NtRp638
(dp639
g12
g13
sg14
S'Brush Script MT'
p640
sg16
I400
sg17
g18
sg19
g18
sg20
S'/Library/Fonts/Brush Script.ttf'
p641
sg22
g23
sbag7
(g8
g9
NtRp642
(dp643
g12
g18
sg14
S'.Keyboard'
p644
sg16
I400
sg17
g18
sg19
g18
sg20
S'/System/Library/Fonts/Keyboard.ttf'
p645
sg22
g23
sbag7
(g8
g9
NtRp646
(dp647
g12
g18
sg14
S'Hiragino Maru Gothic ProN'
p648
sg16
I400
sg17
g18
sg19
g18
sg20
S'/Library/Fonts/\xe3\x83\x92\xe3\x83\xa9\xe3\x82\xad\xe3\x82\x99\xe3\x83\x8e\xe4\xb8\xb8\xe3\x82\xb3\xe3\x82\x99 ProN W4.otf'
p649
sg22
g23
sbag7
(g8
g9
NtRp650
(dp651
g12
g18
sg14
S'STIXSizeOneSym'
p652
sg16
I400
sg17
g18
sg19
g18
sg20
S'/Library/Fonts/STIXSizOneSymReg.otf'
p653
sg22
g23
sbag7
(g8
g9
NtRp654
(dp655
g12
g18
sg14
S'STIXIntegralsUpSm'
p656
sg16
I400
sg17
g18
sg19
g18
sg20
S'/Library/Fonts/STIXIntUpSmReg.otf'
p657
sg22
g23
sbag7
(g8
g9
NtRp658
(dp659
g12
g18
sg14
S'Andale Mono'
p660
sg16
I400
sg17
g18
sg19
g18
sg20
S'/Library/Fonts/Andale Mono.ttf'
p661
sg22
g23
sbag7
(g8
g9
NtRp662
(dp663
g12
g18
sg14
S'Geeza Pro'
p664
sg16
I400
sg17
g18
sg19
g18
sg20
S'/System/Library/Fonts/Geeza Pro.ttf'
p665
sg22
g23
sbag7
(g8
g9
NtRp666
(dp667
g12
g18
sg14
S'Khmer Sangam MN'
p668
sg16
I400
sg17
g18
sg19
g18
sg20
S'/Library/Fonts/Khmer Sangam MN.ttf'
p669
sg22
g23
sbag7
(g8
g9
NtRp670
(dp671
g12
g18
sg14
S'YuMincho'
p672
sg16
I400
sg17
g18
sg19
g18
sg20
S'/Library/Fonts/Yu Mincho Medium.otf'
p673
sg22
g23
sbag7
(g8
g9
NtRp674
(dp675
g12
g18
sg14
S'Microsoft Sans Serif'
p676
sg16
I400
sg17
g18
sg19
g18
sg20
S'/Library/Fonts/Microsoft Sans Serif.ttf'
p677
sg22
g23
sbag7
(g8
g9
NtRp678
(dp679
g12
g18
sg14
S'STIXIntegralsUpD'
p680
sg16
I700
sg17
g18
sg19
g18
sg20
S'/Library/Fonts/STIXIntUpDBol.otf'
p681
sg22
g23
sbag7
(g8
g9
NtRp682
(dp683
g12
g18
sg14
S'Kai'
p684
sg16
I400
sg17
g18
sg19
g18
sg20
S'/Library/Fonts/Kai.ttf'
p685
sg22
g23
sbag7
(g8
g9
NtRp686
(dp687
g12
g18
sg14
S'STIXGeneral'
p688
sg16
I400
sg17
g18
sg19
g18
sg20
S'/Library/Fonts/STIXGeneral.otf'
p689
sg22
g23
sbag7
(g8
g9
NtRp690
(dp691
g12
g13
sg14
S'Courier New'
p692
sg16
I400
sg17
g18
sg19
g18
sg20
S'/Library/Fonts/Courier New Italic.ttf'
p693
sg22
g23
sbag7
(g8
g9
NtRp694
(dp695
g12
g18
sg14
S'Arial Black'
p696
sg16
I900
sg17
g18
sg19
g18
sg20
S'/Library/Fonts/Arial Black.ttf'
p697
sg22
g23
sbag7
(g8
g9
NtRp698
(dp699
g12
g13
sg14
S'STIXGeneral'
p700
sg16
I400
sg17
g18
sg19
g18
sg20
S'/Library/Fonts/STIXGeneralItalic.otf'
p701
sg22
g23
sbag7
(g8
g9
NtRp702
(dp703
g12
g18
sg14
S'Silom'
p704
sg16
I400
sg17
g18
sg19
g18
sg20
S'/Library/Fonts/Silom.ttf'
p705
sg22
g23
sbag7
(g8
g9
NtRp706
(dp707
g12
g58
sg14
S'Mshtakan'
p708
sg16
I700
sg17
g18
sg19
g18
sg20
S'/Library/Fonts/MshtakanBoldOblique.ttf'
p709
sg22
g23
sbag7
(g8
g9
NtRp710
(dp711
g12
g18
sg14
S'Yuppy TC'
p712
sg16
I400
sg17
g18
sg19
g18
sg20
S'/Library/Fonts/YuppyTC-Regular.otf'
p713
sg22
g23
sbag7
(g8
g9
NtRp714
(dp715
g12
g18
sg14
S'STHeiti'
p716
sg16
I400
sg17
g18
sg19
g18
sg20
S'/Library/Fonts/\xe5\x8d\x8e\xe6\x96\x87\xe7\xbb\x86\xe9\xbb\x91.ttf'
p717
sg22
g23
sbag7
(g8
g9
NtRp718
(dp719
g12
g18
sg14
S'STIXSizeFourSym'
p720
sg16
I400
sg17
g18
sg19
g18
sg20
S'/Library/Fonts/STIXSizFourSymReg.otf'
p721
sg22
g23
sbag7
(g8
g9
NtRp722
(dp723
g12
g18
sg14
S'STHeiti'
p724
sg16
I400
sg17
g18
sg19
g18
sg20
S'/Library/Fonts/\xe5\x8d\x8e\xe6\x96\x87\xe9\xbb\x91\xe4\xbd\x93.ttf'
p725
sg22
g23
sbag7
(g8
g9
NtRp726
(dp727
g12
g18
sg14
S'Apple Chancery'
p728
sg16
I400
sg17
g18
sg19
g18
sg20
S'/Library/Fonts/Apple Chancery.ttf'
p729
sg22
g23
sbag7
(g8
g9
NtRp730
(dp731
g12
g18
sg14
S'Wingdings 3'
p732
sg16
I400
sg17
g18
sg19
g18
sg20
S'/Library/Fonts/Wingdings 3.ttf'
p733
sg22
g23
sbag7
(g8
g9
NtRp734
(dp735
g12
g13
sg14
S'STIXGeneral'
p736
sg16
I700
sg17
g18
sg19
g18
sg20
S'/Library/Fonts/STIXGeneralBolIta.otf'
p737
sg22
g23
sbag7
(g8
g9
NtRp738
(dp739
g12
g18
sg14
S'STIXIntegralsUpSm'
p740
sg16
I700
sg17
g18
sg19
g18
sg20
S'/Library/Fonts/STIXIntUpSmBol.otf'
p741
sg22
g23
sbag7
(g8
g9
NtRp742
(dp743
g12
g18
sg14
S'Lao Sangam MN'
p744
sg16
I400
sg17
g18
sg19
g18
sg20
S'/Library/Fonts/Lao Sangam MN.ttf'
p745
sg22
g23
sbag7
(g8
g9
NtRp746
(dp747
g12
g18
sg14
S'KufiStandardGK'
p748
sg16
I400
sg17
g18
sg19
g18
sg20
S'/Library/Fonts/KufiStandardGK.ttf'
p749
sg22
g23
sbag7
(g8
g9
NtRp750
(dp751
g12
g18
sg14
S'STIXSizeOneSym'
p752
sg16
I700
sg17
g18
sg19
g18
sg20
S'/Library/Fonts/STIXSizOneSymBol.otf'
p753
sg22
g23
sbag7
(g8
g9
NtRp754
(dp755
g12
g18
sg14
S'Comic Sans MS'
p756
sg16
I400
sg17
g18
sg19
g18
sg20
S'/Library/Fonts/Comic Sans MS.ttf'
p757
sg22
g23
sbag7
(g8
g9
NtRp758
(dp759
g12
g18
sg14
S'STIXSizeTwoSym'
p760
sg16
I400
sg17
g18
sg19
g18
sg20
S'/Library/Fonts/STIXSizTwoSymReg.otf'
p761
sg22
g23
sbag7
(g8
g9
NtRp762
(dp763
g12
g18
sg14
S'Hei'
p764
sg16
I400
sg17
g18
sg19
g18
sg20
S'/Library/Fonts/Hei.ttf'
p765
sg22
g23
sbag7
(g8
g9
NtRp766
(dp767
g12
g18
sg14
S'Weibei SC'
p768
sg16
I700
sg17
g18
sg19
g18
sg20
S'/Library/Fonts/WeibeiSC-Bold.otf'
p769
sg22
g23
sbag7
(g8
g9
NtRp770
(dp771
g12
g18
sg14
S'STIXSizeFourSym'
p772
sg16
I700
sg17
g18
sg19
g18
sg20
S'/Library/Fonts/STIXSizFourSymBol.otf'
p773
sg22
g23
sbag7
(g8
g9
NtRp774
(dp775
g12
g18
sg14
S'Apple LiGothic'
p776
sg16
I500
sg17
g18
sg19
g18
sg20
S'/Library/Fonts/Apple LiGothic Medium.ttf'
p777
sg22
g23
sbag7
(g8
g9
NtRp778
(dp779
g12
g18
sg14
S'Arial'
p780
sg16
I700
sg17
g18
sg19
g18
sg20
S'/Library/Fonts/Arial Bold.ttf'
p781
sg22
g23
sbag7
(g8
g9
NtRp782
(dp783
g12
g18
sg14
S'Georgia'
p784
sg16
I700
sg17
g18
sg19
g18
sg20
S'/Library/Fonts/Georgia Bold.ttf'
p785
sg22
g23
sbag7
(g8
g9
NtRp786
(dp787
g12
g18
sg14
S'Hiragino Mincho ProN'
p788
sg16
I400
sg17
g18
sg19
g18
sg20
S'/System/Library/Fonts/\xe3\x83\x92\xe3\x83\xa9\xe3\x82\xad\xe3\x82\x99\xe3\x83\x8e\xe6\x98\x8e\xe6\x9c\x9d ProN W3.otf'
p789
sg22
g23
sbag7
(g8
g9
NtRp790
(dp791
g12
g18
sg14
S'Osaka'
p792
sg16
I400
sg17
g18
sg19
g18
sg20
S'/Library/Fonts/OsakaMono.ttf'
p793
sg22
g23
sbag7
(g8
g9
NtRp794
(dp795
g12
g18
sg14
S'GungSeo'
p796
sg16
I400
sg17
g18
sg19
g18
sg20
S'/Library/Fonts/Gungseouche.ttf'
p797
sg22
g23
sbag7
(g8
g9
NtRp798
(dp799
g12
g18
sg14
S'STIXSizeTwoSym'
p800
sg16
I700
sg17
g18
sg19
g18
sg20
S'/Library/Fonts/STIXSizTwoSymBol.otf'
p801
sg22
g23
sbag7
(g8
g9
NtRp802
(dp803
g12
g18
sg14
S'Wingdings'
p804
sg16
I400
sg17
g18
sg19
g18
sg20
S'/Library/Fonts/Wingdings.ttf'
p805
sg22
g23
sbag7
(g8
g9
NtRp806
(dp807
g12
g18
sg14
S'Impact'
p808
sg16
I400
sg17
g18
sg19
g18
sg20
S'/Library/Fonts/Impact.ttf'
p809
sg22
g23
sbag7
(g8
g9
NtRp810
(dp811
g12
g18
sg14
S'Tahoma'
p812
sg16
I700
sg17
g18
sg19
g18
sg20
S'/Library/Fonts/Tahoma Bold.ttf'
p813
sg22
g23
sbag7
(g8
g9
NtRp814
(dp815
g12
g18
sg14
S'STIXNonUnicode'
p816
sg16
I700
sg17
g18
sg19
g18
sg20
S'/Library/Fonts/STIXNonUniBol.otf'
p817
sg22
g23
sbag7
(g8
g9
NtRp818
(dp819
g12
g13
sg14
S'Georgia'
p820
sg16
I700
sg17
g18
sg19
g18
sg20
S'/Library/Fonts/Georgia Bold Italic.ttf'
p821
sg22
g23
sbag7
(g8
g9
NtRp822
(dp823
g12
g18
sg14
S'STIXIntegralsUpD'
p824
sg16
I400
sg17
g18
sg19
g18
sg20
S'/Library/Fonts/STIXIntUpDReg.otf'
p825
sg22
g23
sbag7
(g8
g9
NtRp826
(dp827
g12
g18
sg14
S'Sathu'
p828
sg16
I400
sg17
g18
sg19
g18
sg20
S'/Library/Fonts/Sathu.ttf'
p829
sg22
g23
sbag7
(g8
g9
NtRp830
(dp831
g12
g18
sg14
S'Gujarati MT'
p832
sg16
I400
sg17
g18
sg19
g18
sg20
S'/Library/Fonts/GujaratiMT.ttf'
p833
sg22
g23
sbag7
(g8
g9
NtRp834
(dp835
g12
g18
sg14
S'Apple SD Gothic Neo'
p836
sg16
I500
sg17
g18
sg19
g18
sg20
S'/Library/Fonts/AppleSDGothicNeo-Medium.otf'
p837
sg22
g23
sbasS'defaultFamily'
p838
(dp839
S'afm'
p840
S'Helvetica'
p841
sS'ttf'
p842
S'Bitstream Vera Sans'
p843
ssS'ttffiles'
p844
(lp845
V/Users/ludo/Development/task-chrono/fonts/ttf/STIXNonUniBolIta.ttf
p846
aV/Users/ludo/Development/task-chrono/fonts/ttf/STIXSizTwoSymReg.ttf
p847
aV/Users/ludo/Development/task-chrono/fonts/ttf/cmb10.ttf
p848
aV/Users/ludo/Development/task-chrono/fonts/ttf/STIXSizThreeSymBol.ttf
p849
aV/Users/ludo/Development/task-chrono/fonts/ttf/STIXSizOneSymBol.ttf
p850
aV/Users/ludo/Development/task-chrono/fonts/ttf/STIXSizFourSymBol.ttf
p851
aV/Users/ludo/Development/task-chrono/fonts/ttf/STIXGeneralItalic.ttf
p852
aV/Users/ludo/Development/task-chrono/fonts/ttf/STIXGeneralBol.ttf
p853
aV/Users/ludo/Development/task-chrono/fonts/ttf/STIXSizFourSymReg.ttf
p854
aV/Users/ludo/Development/task-chrono/fonts/ttf/VeraMoBI.ttf
p855
aV/Users/ludo/Development/task-chrono/fonts/ttf/cmmi10.ttf
p856
aV/Users/ludo/Development/task-chrono/fonts/ttf/cmss10.ttf
p857
aV/Users/ludo/Development/task-chrono/fonts/ttf/Vera.ttf
p858
aV/Users/ludo/Development/task-chrono/fonts/ttf/STIXSizFiveSymReg.ttf
p859
aV/Users/ludo/Development/task-chrono/fonts/ttf/STIXNonUniIta.ttf
p860
aV/Users/ludo/Development/task-chrono/fonts/ttf/cmtt10.ttf
p861
aV/Users/ludo/Development/task-chrono/fonts/ttf/STIXNonUni.ttf
p862
aV/Users/ludo/Development/task-chrono/fonts/ttf/STIXNonUniBol.ttf
p863
aV/Users/ludo/Development/task-chrono/fonts/ttf/STIXGeneralBolIta.ttf
p864
aV/Users/ludo/Development/task-chrono/fonts/ttf/cmex10.ttf
p865
aV/Users/ludo/Development/task-chrono/fonts/ttf/VeraBI.ttf
p866
aV/Users/ludo/Development/task-chrono/fonts/ttf/STIXSizTwoSymBol.ttf
p867
aV/Users/ludo/Development/task-chrono/fonts/ttf/VeraMono.ttf
p868
aV/Users/ludo/Development/task-chrono/fonts/ttf/STIXGeneral.ttf
p869
aV/Users/ludo/Development/task-chrono/fonts/ttf/cmr10.ttf
p870
aV/Users/ludo/Development/task-chrono/fonts/ttf/VeraMoIt.ttf
p871
aV/Users/ludo/Development/task-chrono/fonts/ttf/VeraMoBd.ttf
p872
aV/Users/ludo/Development/task-chrono/fonts/ttf/STIXSizOneSymReg.ttf
p873
aV/Users/ludo/Development/task-chrono/fonts/ttf/VeraSeBd.ttf
p874
aV/Users/ludo/Development/task-chrono/fonts/ttf/STIXSizThreeSymReg.ttf
p875
aV/Users/ludo/Development/task-chrono/fonts/ttf/VeraSe.ttf
p876
aV/Users/ludo/Development/task-chrono/fonts/ttf/VeraIt.ttf
p877
aV/Users/ludo/Development/task-chrono/fonts/ttf/cmsy10.ttf
p878
aV/Users/ludo/Development/task-chrono/fonts/ttf/VeraBd.ttf
p879
aS'/Library/Fonts/Trebuchet MS Italic.ttf'
p880
aS'/Library/Fonts/Hoefler Text Ornaments.ttf'
p881
aS'/Library/Fonts/MshtakanRegular.ttf'
p882
aS'/System/Library/Fonts/\xe3\x83\x92\xe3\x83\xa9\xe3\x82\xad\xe3\x82\x99\xe3\x83\x8e\xe6\x98\x8e\xe6\x9c\x9d ProN W6.otf'
p883
aS'/Library/Fonts/Osaka.ttf'
p884
aS'/Library/Fonts/Verdana Bold.ttf'
p885
aS'/Library/Fonts/AppleSDGothicNeo-UltraLight.otf'
p886
aS'/Library/Fonts/\xe5\x84\xb7\xe9\xbb\x91 Pro.ttf'
p887
aS'/Library/Fonts/Arial Unicode.ttf'
p888
aS'/Library/Fonts/STIXSizThreeSymReg.otf'
p889
aS'/Library/Fonts/DIN Condensed Bold.ttf'
p890
aS'/Library/Fonts/Times New Roman.ttf'
p891
aS'/Library/Fonts/AppleSDGothicNeo-Heavy.otf'
p892
aS'/Library/Fonts/Arial.ttf'
p893
aS'/Library/Fonts/AppleGothic.ttf'
p894
aS'/Library/Fonts/Yu Gothic Medium.otf'
p895
aS'/Library/Fonts/GujaratiMTBold.ttf'
p896
aS'/Library/Fonts/Arial Narrow.ttf'
p897
aS'/System/Library/Fonts/AppleSDGothicNeo-Bold.otf'
p898
aS'/Library/Fonts/NISC18030.ttf'
p899
aS'/Library/Fonts/MshtakanOblique.ttf'
p900
aS'/Library/Fonts/\xe3\x83\x92\xe3\x83\xa9\xe3\x82\xad\xe3\x82\x99\xe3\x83\x8e\xe8\xa7\x92\xe3\x82\xb3\xe3\x82\x99 Pro W3.otf'
p901
aS'/Library/Fonts/AppleMyungjo.ttf'
p902
aS'/System/Library/Fonts/ZapfDingbats.ttf'
p903
aS'/Library/Fonts/STIXIntDBol.otf'
p904
aS'/Library/Fonts/Apple LiSung Light.ttf'
p905
aS'/Library/Fonts/DIN Alternate Bold.ttf'
p906
aS'/Library/Fonts/Myanmar Sangam MN.ttf'
p907
aS'/Library/Fonts/STIXSizThreeSymBol.otf'
p908
aS'/Library/Fonts/Courier New.ttf'
p909
aS'/Library/Fonts/Arial Narrow Bold Italic.ttf'
p910
aS'/Library/Fonts/Zapfino.ttf'
p911
aS'/Library/Fonts/Arial Narrow Bold.ttf'
p912
aS'/Library/Fonts/Times New Roman Italic.ttf'
p913
aS'/Library/Fonts/Krungthep.ttf'
p914
aS'/Library/Fonts/\xe3\x83\x92\xe3\x83\xa9\xe3\x82\xad\xe3\x82\x99\xe3\x83\x8e\xe6\x98\x8e\xe6\x9c\x9d Pro W3.otf'
p915
aS'/Library/Fonts/AppleSDGothicNeo-ExtraBold.otf'
p916
aS'/Library/Fonts/Georgia.ttf'
p917
aS'/Library/Fonts/STIXIntSmBol.otf'
p918
aS'/Library/Fonts/Trebuchet MS Bold.ttf'
p919
aS'/System/Library/Fonts/Apple Symbols.ttf'
p920
aS'/Library/Fonts/Times New Roman Bold Italic.ttf'
p921
aS'/Library/Fonts/Webdings.ttf'
p922
aS'/Library/Fonts/Arial Narrow Italic.ttf'
p923
aS'/System/Library/Fonts/\xe3\x83\x92\xe3\x83\xa9\xe3\x82\xad\xe3\x82\x99\xe3\x83\x8e\xe8\xa7\x92\xe3\x82\xb3\xe3\x82\x99 ProN W3.otf'
p924
aS'/Library/Fonts/Pilgiche.ttf'
p925
aS'/System/Library/Fonts/Apple Braille Outline 8 Dot.ttf'
p926
aS'/Library/Fonts/Nadeem.ttf'
p927
aS'/Library/Fonts/PlantagenetCherokee.ttf'
p928
aS'/Library/Fonts/Times New Roman Bold.ttf'
p929
aS'/Library/Fonts/BiauKai.ttf'
p930
aS'/Library/Fonts/Arial Bold Italic.ttf'
p931
aS'/Library/Fonts/STIXVar.otf'
p932
aS'/Library/Fonts/STIXVarBol.otf'
p933
aS'/Library/Fonts/Hiragino Sans GB W3.otf'
p934
aS'/System/Library/Fonts/\xe3\x83\x92\xe3\x83\xa9\xe3\x82\xad\xe3\x82\x99\xe3\x83\x8e\xe8\xa7\x92\xe3\x82\xb3\xe3\x82\x99 ProN W6.otf'
p935
aS'/Library/Fonts/\xe3\x83\x92\xe3\x83\xa9\xe3\x82\xad\xe3\x82\x99\xe3\x83\x8e\xe8\xa7\x92\xe3\x82\xb3\xe3\x82\x99 StdN W8.otf'
p936
aS'/Library/Fonts/MshtakanBold.ttf'
p937
aS'/Library/Fonts/STIXIntUpBol.otf'
p938
aS'/Library/Fonts/WawaTC-Regular.otf'
p939
aS'/Library/Fonts/Skia.ttf'
p940
aS'/Library/Fonts/STIXSizFiveSymReg.otf'
p941
aS'/Library/Fonts/Verdana.ttf'
p942
aS'/Library/Fonts/Gurmukhi.ttf'
p943
aS'/Library/Fonts/Yu Gothic Bold.otf'
p944
aS'/System/Library/Fonts/Apple Color Emoji.ttf'
p945
aS'/Library/Fonts/Yu Mincho Demibold.otf'
p946
aS'/Library/Fonts/\xe5\x8d\x8e\xe6\x96\x87\xe4\xbb\xbf\xe5\xae\x8b.ttf'
p947
aS'/Library/Fonts/Arial Italic.ttf'
p948
aS'/Library/Fonts/\xe3\x83\x92\xe3\x83\xa9\xe3\x82\xad\xe3\x82\x99\xe3\x83\x8e\xe8\xa7\x92\xe3\x82\xb3\xe3\x82\x99 Std W8.otf'
p949
aS'/Library/Fonts/\xe5\x84\xb7\xe5\xae\x8b Pro.ttf'
p950
aS'/Library/Fonts/\xe3\x83\x92\xe3\x83\xa9\xe3\x82\xad\xe3\x82\x99\xe3\x83\x8e\xe4\xb8\xb8\xe3\x82\xb3\xe3\x82\x99 Pro W4.otf'
p951
aS'/Library/Fonts/STIXNonUniBolIta.otf'
p952
aS'/System/Library/Fonts/Apple Braille Pinpoint 8 Dot.ttf'
p953
aS'/Library/Fonts/Georgia Italic.ttf'
p954
aS'/System/Library/Fonts/Apple Braille Outline 6 Dot.ttf'
p955
aS'/Library/Fonts/Chalkduster.ttf'
p956
aS'/Library/Fonts/Courier New Bold Italic.ttf'
p957
aS'/Library/Fonts/WawaSC-Regular.otf'
p958
aS'/Library/Fonts/Arial Rounded Bold.ttf'
p959
aS'/Library/Fonts/DevanagariMTBold.ttf'
p960
aS'/Library/Fonts/DevanagariMT.ttf'
p961
aS'/Library/Fonts/PCmyoungjo.ttf'
p962
aS'/System/Library/Fonts/LastResort.ttf'
p963
aS'/Library/Fonts/AppleSDGothicNeo-Light.otf'
p964
aS'/Library/Fonts/AlBayan.ttf'
p965
aS'/Library/Fonts/Verdana Bold Italic.ttf'
p966
aS'/Library/Fonts/Hiragino Sans GB W6.otf'
p967
aS'/Library/Fonts/Kailasa.ttf'
p968
aS'/Library/Fonts/STIXIntSmReg.otf'
p969
aS'/Library/Fonts/AppleSDGothicNeo-Thin.otf'
p970
aS'/Library/Fonts/Kokonor.ttf'
p971
aS'/System/Library/Fonts/Geeza Pro Bold.ttf'
p972
aS'/Library/Fonts/Verdana Italic.ttf'
p973
aS'/Library/Fonts/STIXGeneralBol.otf'
p974
aS'/System/Library/Fonts/Apple Braille.ttf'
p975
aS'/Library/Fonts/\xe3\x83\x92\xe3\x83\xa9\xe3\x82\xad\xe3\x82\x99\xe3\x83\x8e\xe6\x98\x8e\xe6\x9c\x9d Pro W6.otf'
p976
aS'/Library/Fonts/InaiMathi.ttf'
p977
aS'/Library/Fonts/WeibeiTC-Bold.otf'
p978
aS'/Library/Fonts/STIXNonUni.otf'
p979
aS'/Library/Fonts/STIXIntDReg.otf'
p980
aS'/Library/Fonts/STIXNonUniIta.otf'
p981
aS'/Library/Fonts/Baghdad.ttf'
p982
aS'/Library/Fonts/STIXIntUpReg.otf'
p983
aS'/Library/Fonts/YuppySC-Regular.otf'
p984
aS'/Library/Fonts/Comic Sans MS Bold.ttf'
p985
aS'/Library/Fonts/Trebuchet MS.ttf'
p986
aS'/Library/Fonts/Courier New Bold.ttf'
p987
aS'/Library/Fonts/BigCaslon.ttf'
p988
aS'/Library/Fonts/Ayuthaya.ttf'
p989
aS'/Library/Fonts/AppleSDGothicNeo-SemiBold.otf'
p990
aS'/Library/Fonts/Herculanum.ttf'
p991
aS'/Library/Fonts/DecoTypeNaskh.ttf'
p992
aS'/System/Library/Fonts/Apple Braille Pinpoint 6 Dot.ttf'
p993
aS'/Library/Fonts/\xe3\x83\x92\xe3\x83\xa9\xe3\x82\xad\xe3\x82\x99\xe3\x83\x8e\xe8\xa7\x92\xe3\x82\xb3\xe3\x82\x99 Pro W6.otf'
p994
aS'/System/Library/Fonts/Symbol.ttf'
p995
aS'/Library/Fonts/Trebuchet MS Bold Italic.ttf'
p996
aS'/System/Library/Fonts/AppleSDGothicNeo-Regular.otf'
p997
aS'/Library/Fonts/AlBayanBold.ttf'
p998
aS'/Library/Fonts/Wingdings 2.ttf'
p999
aS'/Library/Fonts/HeadlineA.ttf'
p1000
aS'/Library/Fonts/Tahoma.ttf'
p1001
aS'/Library/Fonts/Brush Script.ttf'
p1002
aS'/System/Library/Fonts/Keyboard.ttf'
p1003
aS'/Library/Fonts/\xe3\x83\x92\xe3\x83\xa9\xe3\x82\xad\xe3\x82\x99\xe3\x83\x8e\xe4\xb8\xb8\xe3\x82\xb3\xe3\x82\x99 ProN W4.otf'
p1004
aS'/Library/Fonts/STIXSizOneSymReg.otf'
p1005
aS'/Library/Fonts/STIXIntUpSmReg.otf'
p1006
aS'/Library/Fonts/Andale Mono.ttf'
p1007
aS'/System/Library/Fonts/Geeza Pro.ttf'
p1008
aS'/Library/Fonts/Khmer Sangam MN.ttf'
p1009
aS'/Library/Fonts/Yu Mincho Medium.otf'
p1010
aS'/Library/Fonts/Microsoft Sans Serif.ttf'
p1011
aS'/Library/Fonts/STIXIntUpDBol.otf'
p1012
aS'/Library/Fonts/Kai.ttf'
p1013
aS'/Library/Fonts/STIXGeneral.otf'
p1014
aS'/Library/Fonts/Courier New Italic.ttf'
p1015
aS'/Library/Fonts/Arial Black.ttf'
p1016
aS'/Library/Fonts/STIXGeneralItalic.otf'
p1017
aS'/Library/Fonts/Silom.ttf'
p1018
aS'/Library/Fonts/MshtakanBoldOblique.ttf'
p1019
aS'/Library/Fonts/YuppyTC-Regular.otf'
p1020
aS'/Library/Fonts/\xe5\x8d\x8e\xe6\x96\x87\xe7\xbb\x86\xe9\xbb\x91.ttf'
p1021
aS'/Library/Fonts/STIXSizFourSymReg.otf'
p1022
aS'/Library/Fonts/\xe5\x8d\x8e\xe6\x96\x87\xe9\xbb\x91\xe4\xbd\x93.ttf'
p1023
aS'/Library/Fonts/Apple Chancery.ttf'
p1024
aS'/Library/Fonts/Wingdings 3.ttf'
p1025
aS'/Library/Fonts/STIXGeneralBolIta.otf'
p1026
aS'/Library/Fonts/STIXIntUpSmBol.otf'
p1027
aS'/Library/Fonts/Lao Sangam MN.ttf'
p1028
aS'/Library/Fonts/KufiStandardGK.ttf'
p1029
aS'/Library/Fonts/STIXSizOneSymBol.otf'
p1030
aS'/Library/Fonts/Comic Sans MS.ttf'
p1031
aS'/Library/Fonts/STIXSizTwoSymReg.otf'
p1032
aS'/Library/Fonts/Hei.ttf'
p1033
aS'/Library/Fonts/WeibeiSC-Bold.otf'
p1034
aS'/Library/Fonts/STIXSizFourSymBol.otf'
p1035
aS'/Library/Fonts/Apple LiGothic Medium.ttf'
p1036
aS'/Library/Fonts/Arial Bold.ttf'
p1037
aS'/Library/Fonts/Georgia Bold.ttf'
p1038
aS'/System/Library/Fonts/\xe3\x83\x92\xe3\x83\xa9\xe3\x82\xad\xe3\x82\x99\xe3\x83\x8e\xe6\x98\x8e\xe6\x9c\x9d ProN W3.otf'
p1039
aS'/Library/Fonts/OsakaMono.ttf'
p1040
aS'/Library/Fonts/Gungseouche.ttf'
p1041
aS'/Library/Fonts/STIXSizTwoSymBol.otf'
p1042
aS'/Library/Fonts/Wingdings.ttf'
p1043
aS'/Library/Fonts/Impact.ttf'
p1044
aS'/Library/Fonts/Tahoma Bold.ttf'
p1045
aS'/Library/Fonts/STIXNonUniBol.otf'
p1046
aS'/Library/Fonts/Georgia Bold Italic.ttf'
p1047
aS'/Library/Fonts/STIXIntUpDReg.otf'
p1048
aS'/Library/Fonts/Sathu.ttf'
p1049
aS'/Library/Fonts/GujaratiMT.ttf'
p1050
aS'/Library/Fonts/AppleSDGothicNeo-Medium.otf'
p1051
asS'_FontManager__default_weight'
p1052
g18
sS'_version'
p1053
I101
sS'ttf_lookup_cache'
p1054
(dp1055
sS'default_size'
p1056
NsS'defaultFont'
p1057
(dp1058
g840
V/Users/ludo/Development/task-chrono/fonts/afm/pcrbo8a.afm
p1059
sg842
g858
ssS'afmfiles'
p1060
(lp1061
g1059
aV/Users/ludo/Development/task-chrono/fonts/afm/pplr8a.afm
p1062
aV/Users/ludo/Development/task-chrono/fonts/afm/pbkd8a.afm
p1063
aV/Users/ludo/Development/task-chrono/fonts/pdfcorefonts/Helvetica-BoldOblique.afm
p1064
aV/Users/ludo/Development/task-chrono/fonts/afm/pagdo8a.afm
p1065
aV/Users/ludo/Development/task-chrono/fonts/afm/pcrr8a.afm
p1066
aV/Users/ludo/Development/task-chrono/fonts/pdfcorefonts/Times-Roman.afm
p1067
aV/Users/ludo/Development/task-chrono/fonts/pdfcorefonts/Courier-Oblique.afm
p1068
aV/Users/ludo/Development/task-chrono/fonts/afm/pncbi8a.afm
p1069
aV/Users/ludo/Development/task-chrono/fonts/pdfcorefonts/Times-BoldItalic.afm
p1070
aV/Users/ludo/Development/task-chrono/fonts/afm/pbkdi8a.afm
p1071
aV/Users/ludo/Development/task-chrono/fonts/afm/pplri8a.afm
p1072
aV/Users/ludo/Development/task-chrono/fonts/afm/pncb8a.afm
p1073
aV/Users/ludo/Development/task-chrono/fonts/pdfcorefonts/Times-Bold.afm
p1074
aV/Users/ludo/Development/task-chrono/fonts/afm/pagk8a.afm
p1075
aV/Users/ludo/Development/task-chrono/fonts/afm/phvro8a.afm
p1076
aV/Users/ludo/Development/task-chrono/fonts/afm/pcrb8a.afm
p1077
aV/Users/ludo/Development/task-chrono/fonts/afm/phvr8a.afm
p1078
aV/Users/ludo/Development/task-chrono/fonts/afm/phvbo8an.afm
p1079
aV/Users/ludo/Development/task-chrono/fonts/afm/pzdr.afm
p1080
aV/Users/ludo/Development/task-chrono/fonts/afm/cmmi10.afm
p1081
aV/Users/ludo/Development/task-chrono/fonts/afm/pncri8a.afm
p1082
aV/Users/ludo/Development/task-chrono/fonts/afm/pplbi8a.afm
p1083
aV/Users/ludo/Development/task-chrono/fonts/afm/cmex10.afm
p1084
aV/Users/ludo/Development/task-chrono/fonts/afm/putri8a.afm
p1085
aV/Users/ludo/Development/task-chrono/fonts/pdfcorefonts/Courier-Bold.afm
p1086
aV/Users/ludo/Development/task-chrono/fonts/afm/cmsy10.afm
p1087
aV/Users/ludo/Development/task-chrono/fonts/afm/pbkli8a.afm
p1088
aV/Users/ludo/Development/task-chrono/fonts/afm/phvb8a.afm
p1089
aV/Users/ludo/Development/task-chrono/fonts/afm/pbkl8a.afm
p1090
aV/Users/ludo/Development/task-chrono/fonts/afm/putb8a.afm
p1091
aV/Users/ludo/Development/task-chrono/fonts/afm/pplb8a.afm
p1092
aV/Users/ludo/Development/task-chrono/fonts/afm/phvro8an.afm
p1093
aV/Users/ludo/Development/task-chrono/fonts/afm/psyr.afm
p1094
aV/Users/ludo/Development/task-chrono/fonts/afm/pzcmi8a.afm
p1095
aV/Users/ludo/Development/task-chrono/fonts/afm/pagko8a.afm
p1096
aV/Users/ludo/Development/task-chrono/fonts/pdfcorefonts/Helvetica-Oblique.afm
p1097
aV/Users/ludo/Development/task-chrono/fonts/afm/phvb8an.afm
p1098
aV/Users/ludo/Development/task-chrono/fonts/afm/pncr8a.afm
p1099
aV/Users/ludo/Development/task-chrono/fonts/afm/phvl8a.afm
p1100
aV/Users/ludo/Development/task-chrono/fonts/afm/putbi8a.afm
p1101
aV/Users/ludo/Development/task-chrono/fonts/afm/phvbo8a.afm
p1102
aV/Users/ludo/Development/task-chrono/fonts/pdfcorefonts/Times-Italic.afm
p1103
aV/Users/ludo/Development/task-chrono/fonts/afm/ptmri8a.afm
p1104
aV/Users/ludo/Development/task-chrono/fonts/afm/phvr8an.afm
p1105
aV/Users/ludo/Development/task-chrono/fonts/pdfcorefonts/Helvetica-Bold.afm
p1106
aV/Users/ludo/Development/task-chrono/fonts/afm/ptmbi8a.afm
p1107
aV/Users/ludo/Development/task-chrono/fonts/afm/phvlo8a.afm
p1108
aV/Users/ludo/Development/task-chrono/fonts/pdfcorefonts/ZapfDingbats.afm
p1109
aV/Users/ludo/Development/task-chrono/fonts/pdfcorefonts/Courier.afm
p1110
aV/Users/ludo/Development/task-chrono/fonts/afm/cmtt10.afm
p1111
aV/Users/ludo/Development/task-chrono/fonts/afm/putr8a.afm
p1112
aV/Users/ludo/Development/task-chrono/fonts/pdfcorefonts/Symbol.afm
p1113
aV/Users/ludo/Development/task-chrono/fonts/afm/ptmb8a.afm
p1114
aV/Users/ludo/Development/task-chrono/fonts/afm/pagd8a.afm
p1115
aV/Users/ludo/Development/task-chrono/fonts/pdfcorefonts/Helvetica.afm
p1116
aV/Users/ludo/Development/task-chrono/fonts/afm/pcrro8a.afm
p1117
aV/Users/ludo/Development/task-chrono/fonts/afm/cmr10.afm
p1118
aV/Users/ludo/Development/task-chrono/fonts/pdfcorefonts/Courier-BoldOblique.afm
p1119
aV/Users/ludo/Development/task-chrono/fonts/afm/ptmr8a.afm
p1120
asS'afmlist'
p1121
(lp1122
g7
(g8
g9
NtRp1123
(dp1124
g12
g13
sg14
S'Courier'
p1125
sg16
I700
sg17
g18
sg19
g18
sg20
g1059
sg22
g23
sbag7
(g8
g9
NtRp1126
(dp1127
g12
g18
sg14
S'Palatino'
p1128
sg16
I500
sg17
g18
sg19
g18
sg20
g1062
sg22
g23
sbag7
(g8
g9
NtRp1129
(dp1130
g12
g18
sg14
S'ITC Bookman'
p1131
sg16
I600
sg17
g18
sg19
g18
sg20
g1063
sg22
g23
sbag7
(g8
g9
NtRp1132
(dp1133
g12
g13
sg14
S'Helvetica'
p1134
sg16
I700
sg17
g18
sg19
g18
sg20
g1064
sg22
g23
sbag7
(g8
g9
NtRp1135
(dp1136
g12
g13
sg14
S'ITC Avant Garde Gothic'
p1137
sg16
I600
sg17
g18
sg19
g18
sg20
g1065
sg22
g23
sbag7
(g8
g9
NtRp1138
(dp1139
g12
g18
sg14
S'Courier'
p1140
sg16
I500
sg17
g18
sg19
g18
sg20
g1066
sg22
g23
sbag7
(g8
g9
NtRp1141
(dp1142
g12
g18
sg14
S'Times'
p1143
sg16
I500
sg17
g18
sg19
g18
sg20
g1067
sg22
g23
sbag7
(g8
g9
NtRp1144
(dp1145
g12
g13
sg14
S'Courier'
p1146
sg16
I500
sg17
g18
sg19
g18
sg20
g1068
sg22
g23
sbag7
(g8
g9
NtRp1147
(dp1148
g12
g13
sg14
S'New Century Schoolbook'
p1149
sg16
I700
sg17
g18
sg19
g18
sg20
g1069
sg22
g23
sbag7
(g8
g9
NtRp1150
(dp1151
g12
g13
sg14
S'Times'
p1152
sg16
I700
sg17
g18
sg19
g18
sg20
g1070
sg22
g23
sbag7
(g8
g9
NtRp1153
(dp1154
g12
g13
sg14
S'ITC Bookman'
p1155
sg16
I600
sg17
g18
sg19
g18
sg20
g1071
sg22
g23
sbag7
(g8
g9
NtRp1156
(dp1157
g12
g13
sg14
S'Palatino'
p1158
sg16
I500
sg17
g18
sg19
g18
sg20
g1072
sg22
g23
sbag7
(g8
g9
NtRp1159
(dp1160
g12
g18
sg14
S'New Century Schoolbook'
p1161
sg16
I700
sg17
g18
sg19
g18
sg20
g1073
sg22
g23
sbag7
(g8
g9
NtRp1162
(dp1163
g12
g18
sg14
S'Times'
p1164
sg16
I700
sg17
g18
sg19
g18
sg20
g1074
sg22
g23
sbag7
(g8
g9
NtRp1165
(dp1166
g12
g18
sg14
S'ITC Avant Garde Gothic'
p1167
sg16
I400
sg17
g18
sg19
g18
sg20
g1075
sg22
g23
sbag7
(g8
g9
NtRp1168
(dp1169
g12
g13
sg14
S'Helvetica'
p1170
sg16
I500
sg17
g18
sg19
g18
sg20
g1076
sg22
g23
sbag7
(g8
g9
NtRp1171
(dp1172
g12
g18
sg14
S'Courier'
p1173
sg16
I700
sg17
g18
sg19
g18
sg20
g1077
sg22
g23
sbag7
(g8
g9
NtRp1174
(dp1175
g12
g18
sg14
S'Helvetica'
p1176
sg16
I500
sg17
g18
sg19
g18
sg20
g1078
sg22
g23
sbag7
(g8
g9
NtRp1177
(dp1178
g12
g13
sg14
S'Helvetica'
p1179
sg16
I700
sg17
g200
sg19
g18
sg20
g1079
sg22
g23
sbag7
(g8
g9
NtRp1180
(dp1181
g12
g18
sg14
S'ITC Zapf Dingbats'
p1182
sg16
I500
sg17
g18
sg19
g18
sg20
g1080
sg22
g23
sbag7
(g8
g9
NtRp1183
(dp1184
g12
g13
sg14
S'Computer Modern'
p1185
sg16
I500
sg17
g18
sg19
g18
sg20
g1081
sg22
g23
sbag7
(g8
g9
NtRp1186
(dp1187
g12
g13
sg14
S'New Century Schoolbook'
p1188
sg16
I500
sg17
g18
sg19
g18
sg20
g1082
sg22
g23
sbag7
(g8
g9
NtRp1189
(dp1190
g12
g13
sg14
S'Palatino'
p1191
sg16
I700
sg17
g18
sg19
g18
sg20
g1083
sg22
g23
sbag7
(g8
g9
NtRp1192
(dp1193
g12
g18
sg14
S'Computer Modern'
p1194
sg16
I500
sg17
g18
sg19
g18
sg20
g1084
sg22
g23
sbag7
(g8
g9
NtRp1195
(dp1196
g12
g13
sg14
S'Utopia'
p1197
sg16
I400
sg17
g18
sg19
g18
sg20
g1085
sg22
g23
sbag7
(g8
g9
NtRp1198
(dp1199
g12
g18
sg14
S'Courier'
p1200
sg16
I700
sg17
g18
sg19
g18
sg20
g1086
sg22
g23
sbag7
(g8
g9
NtRp1201
(dp1202
g12
g13
sg14
S'Computer Modern'
p1203
sg16
I500
sg17
g18
sg19
g18
sg20
g1087
sg22
g23
sbag7
(g8
g9
NtRp1204
(dp1205
g12
g13
sg14
S'ITC Bookman'
p1206
sg16
I200
sg17
g18
sg19
g18
sg20
g1088
sg22
g23
sbag7
(g8
g9
NtRp1207
(dp1208
g12
g18
sg14
S'Helvetica'
p1209
sg16
I700
sg17
g18
sg19
g18
sg20
g1089
sg22
g23
sbag7
(g8
g9
NtRp1210
(dp1211
g12
g18
sg14
S'ITC Bookman'
p1212
sg16
I200
sg17
g18
sg19
g18
sg20
g1090
sg22
g23
sbag7
(g8
g9
NtRp1213
(dp1214
g12
g18
sg14
S'Utopia'
p1215
sg16
I700
sg17
g18
sg19
g18
sg20
g1091
sg22
g23
sbag7
(g8
g9
NtRp1216
(dp1217
g12
g18
sg14
S'Palatino'
p1218
sg16
I700
sg17
g18
sg19
g18
sg20
g1092
sg22
g23
sbag7
(g8
g9
NtRp1219
(dp1220
g12
g13
sg14
S'Helvetica'
p1221
sg16
I500
sg17
g200
sg19
g18
sg20
g1093
sg22
g23
sbag7
(g8
g9
NtRp1222
(dp1223
g12
g18
sg14
S'Symbol'
p1224
sg16
I500
sg17
g18
sg19
g18
sg20
g1094
sg22
g23
sbag7
(g8
g9
NtRp1225
(dp1226
g12
g13
sg14
S'ITC Zapf Chancery'
p1227
sg16
I500
sg17
g18
sg19
g18
sg20
g1095
sg22
g23
sbag7
(g8
g9
NtRp1228
(dp1229
g12
g13
sg14
S'ITC Avant Garde Gothic'
p1230
sg16
I400
sg17
g18
sg19
g18
sg20
g1096
sg22
g23
sbag7
(g8
g9
NtRp1231
(dp1232
g12
g13
sg14
S'Helvetica'
p1233
sg16
I500
sg17
g18
sg19
g18
sg20
g1097
sg22
g23
sbag7
(g8
g9
NtRp1234
(dp1235
g12
g18
sg14
S'Helvetica'
p1236
sg16
I700
sg17
g200
sg19
g18
sg20
g1098
sg22
g23
sbag7
(g8
g9
NtRp1237
(dp1238
g12
g18
sg14
S'New Century Schoolbook'
p1239
sg16
I500
sg17
g18
sg19
g18
sg20
g1099
sg22
g23
sbag7
(g8
g9
NtRp1240
(dp1241
g12
g18
sg14
S'Helvetica'
p1242
sg16
I200
sg17
g18
sg19
g18
sg20
g1100
sg22
g23
sbag7
(g8
g9
NtRp1243
(dp1244
g12
g13
sg14
S'Utopia'
p1245
sg16
I700
sg17
g18
sg19
g18
sg20
g1101
sg22
g23
sbag7
(g8
g9
NtRp1246
(dp1247
g12
g13
sg14
S'Helvetica'
p1248
sg16
I700
sg17
g18
sg19
g18
sg20
g1102
sg22
g23
sbag7
(g8
g9
NtRp1249
(dp1250
g12
g13
sg14
S'Times'
p1251
sg16
I500
sg17
g18
sg19
g18
sg20
g1103
sg22
g23
sbag7
(g8
g9
NtRp1252
(dp1253
g12
g13
sg14
S'Times'
p1254
sg16
I500
sg17
g18
sg19
g18
sg20
g1104
sg22
g23
sbag7
(g8
g9
NtRp1255
(dp1256
g12
g18
sg14
S'Helvetica'
p1257
sg16
I500
sg17
g200
sg19
g18
sg20
g1105
sg22
g23
sbag7
(g8
g9
NtRp1258
(dp1259
g12
g18
sg14
S'Helvetica'
p1260
sg16
I700
sg17
g18
sg19
g18
sg20
g1106
sg22
g23
sbag7
(g8
g9
NtRp1261
(dp1262
g12
g13
sg14
S'Times'
p1263
sg16
I700
sg17
g18
sg19
g18
sg20
g1107
sg22
g23
sbag7
(g8
g9
NtRp1264
(dp1265
g12
g13
sg14
S'Helvetica'
p1266
sg16
I200
sg17
g18
sg19
g18
sg20
g1108
sg22
g23
sbag7
(g8
g9
NtRp1267
(dp1268
g12
g18
sg14
S'ZapfDingbats'
p1269
sg16
I500
sg17
g18
sg19
g18
sg20
g1109
sg22
g23
sbag7
(g8
g9
NtRp1270
(dp1271
g12
g18
sg14
S'Courier'
p1272
sg16
I500
sg17
g18
sg19
g18
sg20
g1110
sg22
g23
sbag7
(g8
g9
NtRp1273
(dp1274
g12
g18
sg14
S'Computer Modern'
p1275
sg16
I500
sg17
g18
sg19
g18
sg20
g1111
sg22
g23
sbag7
(g8
g9
NtRp1276
(dp1277
g12
g18
sg14
S'Utopia'
p1278
sg16
I400
sg17
g18
sg19
g18
sg20
g1112
sg22
g23
sbag7
(g8
g9
NtRp1279
(dp1280
g12
g18
sg14
S'Symbol'
p1281
sg16
I500
sg17
g18
sg19
g18
sg20
g1113
sg22
g23
sbag7
(g8
g9
NtRp1282
(dp1283
g12
g18
sg14
S'Times'
p1284
sg16
I700
sg17
g18
sg19
g18
sg20
g1114
sg22
g23
sbag7
(g8
g9
NtRp1285
(dp1286
g12
g18
sg14
S'ITC Avant Garde Gothic'
p1287
sg16
I600
sg17
g18
sg19
g18
sg20
g1115
sg22
g23
sbag7
(g8
g9
NtRp1288
(dp1289
g12
g18
sg14
S'Helvetica'
p1290
sg16
I500
sg17
g18
sg19
g18
sg20
g1116
sg22
g23
sbag7
(g8
g9
NtRp1291
(dp1292
g12
g13
sg14
S'Courier'
p1293
sg16
I500
sg17
g18
sg19
g18
sg20
g1117
sg22
g23
sbag7
(g8
g9
NtRp1294
(dp1295
g12
g18
sg14
S'Computer Modern'
p1296
sg16
I500
sg17
g18
sg19
g18
sg20
g1118
sg22
g23
sbag7
(g8
g9
NtRp1297
(dp1298
g12
g13
sg14
S'Courier'
p1299
sg16
I700
sg17
g18
sg19
g18
sg20
g1119
sg22
g23
sbag7
(g8
g9
NtRp1300
(dp1301
g12
g18
sg14
S'Times'
p1302
sg16
I500
sg17
g18
sg19
g18
sg20
g1120
sg22
g23
sbasb.